target datalayout = "e-m:e-p270:32:32-p271:32:32-p272:64:64-i64:64-i128:128-f80:128-n8:16:32:64-S128"
target triple = "x86_64-pc-linux-gnu"

%"class.duckdb_re2::Regexp::ParseState" = type { i32, %"class.duckdb_re2::StringPiece", ptr, ptr, i32, i32 }
%"class.duckdb_re2::StringPiece" = type { ptr, i64 }
%"class.duckdb_re2::Regexp" = type { i8, i8, i16, i16, i16, %union.anon, ptr, %union.anon.0 }
%union.anon = type { ptr }
%union.anon.0 = type { %struct.anon.1 }
%struct.anon.1 = type { i32, ptr }

; Function Attrs: mustprogress nounwind uwtable
define hidden noundef zeroext i1 @_ZN10duckdb_re26Regexp10ParseState8IsMarkerENS_8RegexpOpE(ptr noundef nonnull align 8 dereferenceable(48) %0, i32 noundef %1) #0 align 2 {
  %3 = alloca ptr, align 8
  %4 = alloca i32, align 4
  store ptr %0, ptr %3, align 8, !tbaa !7
  store i32 %1, ptr %4, align 4, !tbaa !61
  %5 = load i32, ptr %4, align 4, !tbaa !61
  %6 = icmp sge i32 %5, 22
  ret i1 %6
}

; Function Attrs: mustprogress uwtable
define hidden noundef zeroext i1 @_ZN10duckdb_re26Regexp10ParseState12PushSimpleOpENS_8RegexpOpE(ptr noundef nonnull align 8 dereferenceable(48) %0, i32 noundef %1) #1 align 2 personality ptr @__gxx_personality_v0 {
  %3 = alloca ptr, align 8
  %4 = alloca i32, align 4
  %5 = alloca ptr, align 8
  %6 = alloca ptr, align 8
  %7 = alloca i32, align 4
  store ptr %0, ptr %3, align 8, !tbaa !7
  store i32 %1, ptr %4, align 4, !tbaa !61
  %8 = load ptr, ptr %3, align 8
  call void @llvm.lifetime.start.p0(i64 8, ptr %5) #19
  %9 = call noalias noundef nonnull ptr @_Znwm(i64 noundef 40) #23
  %10 = load i32, ptr %4, align 4, !tbaa !61
  %11 = getelementptr inbounds nuw %"class.duckdb_re2::Regexp::ParseState", ptr %8, i32 0, i32 0
  %12 = load i32, ptr %11, align 8, !tbaa !16
  invoke void @_ZN10duckdb_re26RegexpC1ENS_8RegexpOpENS0_10ParseFlagsE(ptr noundef nonnull align 8 dereferenceable(40) %9, i32 noundef %10, i32 noundef %12)
          to label %13 unwind label %16

13:                                               ; preds = %2
  store ptr %9, ptr %5, align 8, !tbaa !29
  %14 = load ptr, ptr %5, align 8, !tbaa !29
  %15 = call noundef zeroext i1 @_ZN10duckdb_re26Regexp10ParseState10PushRegexpEPS0_(ptr noundef nonnull align 8 dereferenceable(48) %8, ptr noundef %14)
  call void @llvm.lifetime.end.p0(i64 8, ptr %5) #19
  ret i1 %15

16:                                               ; preds = %2
  %17 = landingpad { ptr, i32 }
          cleanup
  %18 = extractvalue { ptr, i32 } %17, 0
  store ptr %18, ptr %6, align 8
  %19 = extractvalue { ptr, i32 } %17, 1
  store i32 %19, ptr %7, align 4
  call void @_ZdlPv(ptr noundef %9) #21
  call void @llvm.lifetime.end.p0(i64 8, ptr %5) #19
  br label %20

20:                                               ; preds = %16
  %21 = load ptr, ptr %6, align 8
  %22 = load i32, ptr %7, align 4
  %23 = insertvalue { ptr, i32 } poison, ptr %21, 0
  %24 = insertvalue { ptr, i32 } %23, i32 %22, 1
  resume { ptr, i32 } %24
}

; Function Attrs: mustprogress nounwind uwtable
define linkonce_odr hidden noundef i32 @_ZN10duckdb_re26Regexp2opEv(ptr noundef nonnull align 8 dereferenceable(40) %0) #0 comdat align 2 {
  %2 = alloca ptr, align 8
  store ptr %0, ptr %2, align 8, !tbaa !29
  %3 = load ptr, ptr %2, align 8
  %4 = getelementptr inbounds nuw %"class.duckdb_re2::Regexp", ptr %3, i32 0, i32 0
  %5 = load i8, ptr %4, align 8, !tbaa !36
  %6 = zext i8 %5 to i32
  ret i32 %6
}

; Function Attrs: mustprogress uwtable
define hidden void @_ZN10duckdb_re26Regexp10ParseState15DoConcatenationEv(ptr noundef nonnull align 8 dereferenceable(48) %0) #1 align 2 personality ptr @__gxx_personality_v0 {
  %2 = alloca ptr, align 8
  %3 = alloca ptr, align 8
  %4 = alloca ptr, align 8
  %5 = alloca ptr, align 8
  %6 = alloca i32, align 4
  store ptr %0, ptr %2, align 8, !tbaa !7
  %7 = load ptr, ptr %2, align 8
  call void @llvm.lifetime.start.p0(i64 8, ptr %3) #19
  %8 = getelementptr inbounds nuw %"class.duckdb_re2::Regexp::ParseState", ptr %7, i32 0, i32 3
  %9 = load ptr, ptr %8, align 8, !tbaa !26
  store ptr %9, ptr %3, align 8, !tbaa !29
  %10 = load ptr, ptr %3, align 8, !tbaa !29
  %11 = icmp eq ptr %10, null
  br i1 %11, label %16, label %12

12:                                               ; preds = %1
  %13 = load ptr, ptr %3, align 8, !tbaa !29
  %14 = call noundef i32 @_ZN10duckdb_re26Regexp2opEv(ptr noundef nonnull align 8 dereferenceable(40) %13)
  %15 = call noundef zeroext i1 @_ZN10duckdb_re26Regexp10ParseState8IsMarkerENS_8RegexpOpE(ptr noundef nonnull align 8 dereferenceable(48) %7, i32 noundef %14)
  br i1 %15, label %16, label %27

16:                                               ; preds = %12, %1
  call void @llvm.lifetime.start.p0(i64 8, ptr %4) #19
  %17 = call noalias noundef nonnull ptr @_Znwm(i64 noundef 40) #23
  %18 = getelementptr inbounds nuw %"class.duckdb_re2::Regexp::ParseState", ptr %7, i32 0, i32 0
  %19 = load i32, ptr %18, align 8, !tbaa !16
  invoke void @_ZN10duckdb_re26RegexpC1ENS_8RegexpOpENS0_10ParseFlagsE(ptr noundef nonnull align 8 dereferenceable(40) %17, i32 noundef 2, i32 noundef %19)
          to label %20 unwind label %23

20:                                               ; preds = %16
  store ptr %17, ptr %4, align 8, !tbaa !29
  %21 = load ptr, ptr %4, align 8, !tbaa !29
  %22 = call noundef zeroext i1 @_ZN10duckdb_re26Regexp10ParseState10PushRegexpEPS0_(ptr noundef nonnull align 8 dereferenceable(48) %7, ptr noundef %21)
  call void @llvm.lifetime.end.p0(i64 8, ptr %4) #19
  br label %27

23:                                               ; preds = %16
  %24 = landingpad { ptr, i32 }
          cleanup
  %25 = extractvalue { ptr, i32 } %24, 0
  store ptr %25, ptr %5, align 8
  %26 = extractvalue { ptr, i32 } %24, 1
  store i32 %26, ptr %6, align 4
  call void @_ZdlPv(ptr noundef %17) #21
  call void @llvm.lifetime.end.p0(i64 8, ptr %4) #19
  call void @llvm.lifetime.end.p0(i64 8, ptr %3) #19
  br label %28

27:                                               ; preds = %20, %12
  call void @_ZN10duckdb_re26Regexp10ParseState10DoCollapseENS_8RegexpOpE(ptr noundef nonnull align 8 dereferenceable(48) %7, i32 noundef 5)
  call void @llvm.lifetime.end.p0(i64 8, ptr %3) #19
  ret void

28:                                               ; preds = %23
  %29 = load ptr, ptr %5, align 8
  %30 = load i32, ptr %6, align 4
  %31 = insertvalue { ptr, i32 } poison, ptr %29, 0
  %32 = insertvalue { ptr, i32 } %31, i32 %30, 1
  resume { ptr, i32 } %32
}

; Function Attrs: mustprogress uwtable
define hidden noundef zeroext i1 @_ZN10duckdb_re26Regexp10ParseState13DoVerticalBarEv(ptr noundef nonnull align 8 dereferenceable(48) %0) #1 align 2 {
  %2 = alloca i1, align 1
  %3 = alloca ptr, align 8
  %4 = alloca ptr, align 8
  %5 = alloca ptr, align 8
  %6 = alloca ptr, align 8
  %7 = alloca i32, align 4
  store ptr %0, ptr %3, align 8, !tbaa !7
  %8 = load ptr, ptr %3, align 8
  %9 = call noundef zeroext i1 @_ZN10duckdb_re26Regexp10ParseState17MaybeConcatStringEiNS0_10ParseFlagsE(ptr noundef nonnull align 8 dereferenceable(48) %8, i32 noundef -1, i32 noundef 0)
  call void @_ZN10duckdb_re26Regexp10ParseState15DoConcatenationEv(ptr noundef nonnull align 8 dereferenceable(48) %8)
  call void @llvm.lifetime.start.p0(i64 8, ptr %4) #19
  call void @llvm.lifetime.start.p0(i64 8, ptr %5) #19
  %10 = getelementptr inbounds nuw %"class.duckdb_re2::Regexp::ParseState", ptr %8, i32 0, i32 3
  %11 = load ptr, ptr %10, align 8, !tbaa !26
  store ptr %11, ptr %4, align 8, !tbaa !29
  %12 = icmp ne ptr %11, null
  br i1 %12, label %13, label %96

13:                                               ; preds = %1
  %14 = load ptr, ptr %4, align 8, !tbaa !29
  %15 = getelementptr inbounds nuw %"class.duckdb_re2::Regexp", ptr %14, i32 0, i32 6
  %16 = load ptr, ptr %15, align 8, !tbaa !30
  store ptr %16, ptr %5, align 8, !tbaa !29
  %17 = icmp ne ptr %16, null
  br i1 %17, label %18, label %96

18:                                               ; preds = %13
  %19 = load ptr, ptr %5, align 8, !tbaa !29
  %20 = call noundef i32 @_ZN10duckdb_re26Regexp2opEv(ptr noundef nonnull align 8 dereferenceable(40) %19)
  %21 = icmp eq i32 %20, 23
  br i1 %21, label %22, label %96

22:                                               ; preds = %18
  call void @llvm.lifetime.start.p0(i64 8, ptr %6) #19
  %23 = load ptr, ptr %5, align 8, !tbaa !29
  %24 = getelementptr inbounds nuw %"class.duckdb_re2::Regexp", ptr %23, i32 0, i32 6
  %25 = load ptr, ptr %24, align 8, !tbaa !30
  store ptr %25, ptr %6, align 8, !tbaa !29
  %26 = icmp ne ptr %25, null
  br i1 %26, label %27, label %84

27:                                               ; preds = %22
  %28 = load ptr, ptr %4, align 8, !tbaa !29
  %29 = call noundef i32 @_ZN10duckdb_re26Regexp2opEv(ptr noundef nonnull align 8 dereferenceable(40) %28)
  %30 = icmp eq i32 %29, 12
  br i1 %30, label %35, label %31

31:                                               ; preds = %27
  %32 = load ptr, ptr %6, align 8, !tbaa !29
  %33 = call noundef i32 @_ZN10duckdb_re26Regexp2opEv(ptr noundef nonnull align 8 dereferenceable(40) %32)
  %34 = icmp eq i32 %33, 12
  br i1 %34, label %35, label %84

35:                                               ; preds = %31, %27
  %36 = load ptr, ptr %6, align 8, !tbaa !29
  %37 = call noundef i32 @_ZN10duckdb_re26Regexp2opEv(ptr noundef nonnull align 8 dereferenceable(40) %36)
  %38 = icmp eq i32 %37, 12
  br i1 %38, label %39, label %55

39:                                               ; preds = %35
  %40 = load ptr, ptr %4, align 8, !tbaa !29
  %41 = call noundef i32 @_ZN10duckdb_re26Regexp2opEv(ptr noundef nonnull align 8 dereferenceable(40) %40)
  %42 = icmp eq i32 %41, 3
  br i1 %42, label %51, label %43

43:                                               ; preds = %39
  %44 = load ptr, ptr %4, align 8, !tbaa !29
  %45 = call noundef i32 @_ZN10duckdb_re26Regexp2opEv(ptr noundef nonnull align 8 dereferenceable(40) %44)
  %46 = icmp eq i32 %45, 20
  br i1 %46, label %51, label %47

47:                                               ; preds = %43
  %48 = load ptr, ptr %4, align 8, !tbaa !29
  %49 = call noundef i32 @_ZN10duckdb_re26Regexp2opEv(ptr noundef nonnull align 8 dereferenceable(40) %48)
  %50 = icmp eq i32 %49, 12
  br i1 %50, label %51, label %55

51:                                               ; preds = %47, %43, %39
  %52 = load ptr, ptr %5, align 8, !tbaa !29
  %53 = getelementptr inbounds nuw %"class.duckdb_re2::Regexp::ParseState", ptr %8, i32 0, i32 3
  store ptr %52, ptr %53, align 8, !tbaa !26
  %54 = load ptr, ptr %4, align 8, !tbaa !29
  call void @_ZN10duckdb_re26Regexp6DecrefEv(ptr noundef nonnull align 8 dereferenceable(40) %54)
  store i1 true, ptr %2, align 1
  store i32 1, ptr %7, align 4
  br label %95

55:                                               ; preds = %47, %35
  %56 = load ptr, ptr %4, align 8, !tbaa !29
  %57 = call noundef i32 @_ZN10duckdb_re26Regexp2opEv(ptr noundef nonnull align 8 dereferenceable(40) %56)
  %58 = icmp eq i32 %57, 12
  br i1 %58, label %59, label %83

59:                                               ; preds = %55
  %60 = load ptr, ptr %6, align 8, !tbaa !29
  %61 = call noundef i32 @_ZN10duckdb_re26Regexp2opEv(ptr noundef nonnull align 8 dereferenceable(40) %60)
  %62 = icmp eq i32 %61, 3
  br i1 %62, label %71, label %63

63:                                               ; preds = %59
  %64 = load ptr, ptr %6, align 8, !tbaa !29
  %65 = call noundef i32 @_ZN10duckdb_re26Regexp2opEv(ptr noundef nonnull align 8 dereferenceable(40) %64)
  %66 = icmp eq i32 %65, 20
  br i1 %66, label %71, label %67

67:                                               ; preds = %63
  %68 = load ptr, ptr %6, align 8, !tbaa !29
  %69 = call noundef i32 @_ZN10duckdb_re26Regexp2opEv(ptr noundef nonnull align 8 dereferenceable(40) %68)
  %70 = icmp eq i32 %69, 12
  br i1 %70, label %71, label %83

71:                                               ; preds = %67, %63, %59
  %72 = load ptr, ptr %6, align 8, !tbaa !29
  %73 = getelementptr inbounds nuw %"class.duckdb_re2::Regexp", ptr %72, i32 0, i32 6
  %74 = load ptr, ptr %73, align 8, !tbaa !30
  %75 = load ptr, ptr %4, align 8, !tbaa !29
  %76 = getelementptr inbounds nuw %"class.duckdb_re2::Regexp", ptr %75, i32 0, i32 6
  store ptr %74, ptr %76, align 8, !tbaa !30
  %77 = load ptr, ptr %4, align 8, !tbaa !29
  %78 = load ptr, ptr %5, align 8, !tbaa !29
  %79 = getelementptr inbounds nuw %"class.duckdb_re2::Regexp", ptr %78, i32 0, i32 6
  store ptr %77, ptr %79, align 8, !tbaa !30
  %80 = load ptr, ptr %5, align 8, !tbaa !29
  %81 = getelementptr inbounds nuw %"class.duckdb_re2::Regexp::ParseState", ptr %8, i32 0, i32 3
  store ptr %80, ptr %81, align 8, !tbaa !26
  %82 = load ptr, ptr %6, align 8, !tbaa !29
  call void @_ZN10duckdb_re26Regexp6DecrefEv(ptr noundef nonnull align 8 dereferenceable(40) %82)
  store i1 true, ptr %2, align 1
  store i32 1, ptr %7, align 4
  br label %95

83:                                               ; preds = %67, %55
  br label %84

84:                                               ; preds = %83, %31, %22
  %85 = load ptr, ptr %5, align 8, !tbaa !29
  %86 = getelementptr inbounds nuw %"class.duckdb_re2::Regexp", ptr %85, i32 0, i32 6
  %87 = load ptr, ptr %86, align 8, !tbaa !30
  %88 = load ptr, ptr %4, align 8, !tbaa !29
  %89 = getelementptr inbounds nuw %"class.duckdb_re2::Regexp", ptr %88, i32 0, i32 6
  store ptr %87, ptr %89, align 8, !tbaa !30
  %90 = load ptr, ptr %4, align 8, !tbaa !29
  %91 = load ptr, ptr %5, align 8, !tbaa !29
  %92 = getelementptr inbounds nuw %"class.duckdb_re2::Regexp", ptr %91, i32 0, i32 6
  store ptr %90, ptr %92, align 8, !tbaa !30
  %93 = load ptr, ptr %5, align 8, !tbaa !29
  %94 = getelementptr inbounds nuw %"class.duckdb_re2::Regexp::ParseState", ptr %8, i32 0, i32 3
  store ptr %93, ptr %94, align 8, !tbaa !26
  store i1 true, ptr %2, align 1
  store i32 1, ptr %7, align 4
  br label %95

95:                                               ; preds = %84, %71, %51
  call void @llvm.lifetime.end.p0(i64 8, ptr %6) #19
  br label %98

96:                                               ; preds = %18, %13, %1
  %97 = call noundef zeroext i1 @_ZN10duckdb_re26Regexp10ParseState12PushSimpleOpENS_8RegexpOpE(ptr noundef nonnull align 8 dereferenceable(48) %8, i32 noundef 23)
  store i1 %97, ptr %2, align 1
  store i32 1, ptr %7, align 4
  br label %98

98:                                               ; preds = %96, %95
  call void @llvm.lifetime.end.p0(i64 8, ptr %5) #19
  call void @llvm.lifetime.end.p0(i64 8, ptr %4) #19
  %99 = load i1, ptr %2, align 1
  ret i1 %99
}