; Function Attrs: mustprogress uwtable
define hidden noundef zeroext i1 @_ZN10duckdb_re26Regexp10ParseState13DoVerticalBarEv(ptr noundef nonnull align 8 captures(none) dereferenceable(48) %0) local_unnamed_addr #9 align 2 personality ptr @__gxx_personality_v0 {
  %2 = tail call noundef zeroext i1 @_ZN10duckdb_re26Regexp10ParseState17MaybeConcatStringEiNS0_10ParseFlagsE(ptr noundef nonnull align 8 dereferenceable(48) %0, i32 noundef -1, i32 noundef 0)
  %3 = getelementptr inbounds nuw i8, ptr %0, i64 32
  %4 = load ptr, ptr %3, align 8, !tbaa !20
  %5 = icmp eq ptr %4, null
  br i1 %5, label %9, label %6

6:                                                ; preds = %1
  %7 = load i8, ptr %4, align 8, !tbaa !26
  %8 = icmp ugt i8 %7, 21
  br i1 %8, label %9, label %_ZN10duckdb_re26Regexp10ParseState15DoConcatenationEv.exit

9:                                                ; preds = %6, %1
  %10 = tail call noalias noundef nonnull dereferenceable(40) ptr @_Znwm(i64 noundef 40) #33
  %11 = load i32, ptr %0, align 8, !tbaa !7
  invoke void @_ZN10duckdb_re26RegexpC1ENS_8RegexpOpENS0_10ParseFlagsE(ptr noundef nonnull align 8 dereferenceable(40) %10, i32 noundef 2, i32 noundef %11)
          to label %12 unwind label %14

12:                                               ; preds = %9
  %13 = tail call noundef zeroext i1 @_ZN10duckdb_re26Regexp10ParseState10PushRegexpEPS0_(ptr noundef nonnull align 8 dereferenceable(48) %0, ptr noundef nonnull %10)
  br label %_ZN10duckdb_re26Regexp10ParseState15DoConcatenationEv.exit

common.resume:                                    ; preds = %39, %14
  %.sink = phi ptr [ %37, %39 ], [ %10, %14 ]
  %common.resume.op = phi { ptr, i32 } [ %40, %39 ], [ %15, %14 ]
  tail call void @_ZdlPv(ptr noundef nonnull %.sink) #30
  resume { ptr, i32 } %common.resume.op

14:                                               ; preds = %9
  %15 = landingpad { ptr, i32 }
          cleanup
  br label %common.resume

_ZN10duckdb_re26Regexp10ParseState15DoConcatenationEv.exit: ; preds = %6, %12
  tail call void @_ZN10duckdb_re26Regexp10ParseState10DoCollapseENS_8RegexpOpE(ptr noundef nonnull align 8 dereferenceable(48) %0, i32 noundef 5)
  %16 = load ptr, ptr %3, align 8, !tbaa !20
  %.not = icmp eq ptr %16, null
  br i1 %.not, label %36, label %17

17:                                               ; preds = %_ZN10duckdb_re26Regexp10ParseState15DoConcatenationEv.exit
  %18 = getelementptr inbounds nuw i8, ptr %16, i64 16
  %19 = load ptr, ptr %18, align 8, !tbaa !23
  %.not30 = icmp eq ptr %19, null
  br i1 %.not30, label %36, label %20

20:                                               ; preds = %17
  %21 = load i8, ptr %19, align 8, !tbaa !26
  %22 = icmp eq i8 %21, 23
  br i1 %22, label %23, label %36

23:                                               ; preds = %20
  %24 = getelementptr inbounds nuw i8, ptr %19, i64 16
  %25 = load ptr, ptr %24, align 8, !tbaa !23
  %.not31 = icmp eq ptr %25, null
  br i1 %.not31, label %.thread36, label %26

26:                                               ; preds = %23
  %27 = load i8, ptr %16, align 8, !tbaa !26
  %28 = icmp eq i8 %27, 12
  %29 = load i8, ptr %25, align 8, !tbaa !26
  br i1 %28, label %.thread, label %30

30:                                               ; preds = %26
  %31 = icmp eq i8 %29, 12
  br i1 %31, label %32, label %.thread36

.thread:                                          ; preds = %26
  switch i8 %29, label %.thread36 [
    i8 12, label %.thread34
    i8 3, label %33
    i8 20, label %33
  ]

32:                                               ; preds = %30
  switch i8 %27, label %.thread36 [
    i8 3, label %.thread34
    i8 20, label %.thread34
  ]

.thread34:                                        ; preds = %.thread, %32, %32
  store ptr %19, ptr %3, align 8, !tbaa !20
  tail call void @_ZN10duckdb_re26Regexp6DecrefEv(ptr noundef nonnull align 8 dereferenceable(40) %16)
  br label %42

33:                                               ; preds = %.thread, %.thread
  %34 = getelementptr inbounds nuw i8, ptr %25, i64 16
  %35 = load ptr, ptr %34, align 8, !tbaa !23
  store ptr %35, ptr %18, align 8, !tbaa !23
  store ptr %16, ptr %24, align 8, !tbaa !23
  store ptr %19, ptr %3, align 8, !tbaa !20
  tail call void @_ZN10duckdb_re26Regexp6DecrefEv(ptr noundef nonnull align 8 dereferenceable(40) %25)
  br label %42

.thread36:                                        ; preds = %.thread, %32, %30, %23
  store ptr %25, ptr %18, align 8, !tbaa !23
  store ptr %16, ptr %24, align 8, !tbaa !23
  store ptr %19, ptr %3, align 8, !tbaa !20
  br label %42

36:                                               ; preds = %20, %17, %_ZN10duckdb_re26Regexp10ParseState15DoConcatenationEv.exit
  %37 = tail call noalias noundef nonnull dereferenceable(40) ptr @_Znwm(i64 noundef 40) #33
  %38 = load i32, ptr %0, align 8, !tbaa !7
  invoke void @_ZN10duckdb_re26RegexpC1ENS_8RegexpOpENS0_10ParseFlagsE(ptr noundef nonnull align 8 dereferenceable(40) %37, i32 noundef 23, i32 noundef %38)
          to label %_ZN10duckdb_re26Regexp10ParseState12PushSimpleOpENS_8RegexpOpE.exit unwind label %39

39:                                               ; preds = %36
  %40 = landingpad { ptr, i32 }
          cleanup
  br label %common.resume

_ZN10duckdb_re26Regexp10ParseState12PushSimpleOpENS_8RegexpOpE.exit: ; preds = %36
  %41 = tail call noundef zeroext i1 @_ZN10duckdb_re26Regexp10ParseState10PushRegexpEPS0_(ptr noundef nonnull align 8 dereferenceable(48) %0, ptr noundef nonnull %37)
  br label %42

42:                                               ; preds = %.thread34, %33, %.thread36, %_ZN10duckdb_re26Regexp10ParseState12PushSimpleOpENS_8RegexpOpE.exit
  ret i1 true
}